	.file	"for.cpp"
	.text
	.section	.text$_ZnwyPv,"x"
	.linkonce discard
	.globl	_ZnwyPv
	.def	_ZnwyPv;	.scl	2;	.type	32;	.endef
	.seh_proc	_ZnwyPv
_ZnwyPv:
.LFB84:
	pushq	%rbp
	.seh_pushreg	%rbp
	movq	%rsp, %rbp
	.seh_setframe	%rbp, 0
	.seh_endprologue
	movq	%rcx, 16(%rbp)
	movq	%rdx, 24(%rbp)
	movq	24(%rbp), %rax
	popq	%rbp
	ret
	.seh_endproc
	.section	.text$_ZdlPvS_,"x"
	.linkonce discard
	.globl	_ZdlPvS_
	.def	_ZdlPvS_;	.scl	2;	.type	32;	.endef
	.seh_proc	_ZdlPvS_
_ZdlPvS_:
.LFB86:
	pushq	%rbp
	.seh_pushreg	%rbp
	movq	%rsp, %rbp
	.seh_setframe	%rbp, 0
	.seh_endprologue
	movq	%rcx, 16(%rbp)
	movq	%rdx, 24(%rbp)
	nop
	popq	%rbp
	ret
	.seh_endproc
	.section	.text$_ZNSt11char_traitsIcE6lengthEPKc,"x"
	.linkonce discard
	.globl	_ZNSt11char_traitsIcE6lengthEPKc
	.def	_ZNSt11char_traitsIcE6lengthEPKc;	.scl	2;	.type	32;	.endef
	.seh_proc	_ZNSt11char_traitsIcE6lengthEPKc
_ZNSt11char_traitsIcE6lengthEPKc:
.LFB159:
	pushq	%rbp
	.seh_pushreg	%rbp
	movq	%rsp, %rbp
	.seh_setframe	%rbp, 0
	subq	$32, %rsp
	.seh_stackalloc	32
	.seh_endprologue
	movq	%rcx, 16(%rbp)
	movl	$0, %eax
	testb	%al, %al
	je	.L6
	movq	16(%rbp), %rax
	movq	%rax, %rcx
	call	_ZN9__gnu_cxx11char_traitsIcE6lengthEPKc
	jmp	.L7
.L6:
	movq	16(%rbp), %rax
	movq	%rax, %rcx
	call	strlen
	nop
.L7:
	addq	$32, %rsp
	popq	%rbp
	ret
	.seh_endproc
	.text
	.globl	main
	.def	main;	.scl	2;	.type	32;	.endef
	.seh_proc	main
main:
.LFB2445:
	pushq	%rbp
	.seh_pushreg	%rbp
	pushq	%rbx
	.seh_pushreg	%rbx
	subq	$136, %rsp
	.seh_stackalloc	136
	leaq	128(%rsp), %rbp
	.seh_setframe	%rbp, 128
	.seh_endprologue
	call	__main
	leaq	24+C.0.0(%rip), %rcx
	leaq	-17(%rbp), %rax
	movq	%rax, -16(%rbp)
	nop
	nop
	leaq	-17(%rbp), %rdx
	leaq	-48(%rbp), %rax
	movq	%rdx, %r9
	movq	%rcx, %r8
	leaq	C.0.0(%rip), %rdx
	movq	%rax, %rcx
.LEHB0:
	call	_ZNSt6vectorINSt7__cxx1112basic_stringIcSt11char_traitsIcESaIcEEESaIS5_EEC1IPKPKcvEET_SD_RKS6_
.LEHE0:
	leaq	-17(%rbp), %rax
	movq	%rax, %rcx
	call	_ZNSt15__new_allocatorINSt7__cxx1112basic_stringIcSt11char_traitsIcESaIcEEEED2Ev
	nop
	leaq	-48(%rbp), %rax
	movq	%rax, -8(%rbp)
	movq	-8(%rbp), %rax
	movq	%rax, %rcx
	call	_ZNSt6vectorINSt7__cxx1112basic_stringIcSt11char_traitsIcESaIcEEESaIS5_EE5beginEv
	movq	%rax, -56(%rbp)
	movq	-8(%rbp), %rax
	movq	%rax, %rcx
	call	_ZNSt6vectorINSt7__cxx1112basic_stringIcSt11char_traitsIcESaIcEEESaIS5_EE3endEv
	movq	%rax, -64(%rbp)
	jmp	.L9
.L10:
	leaq	-56(%rbp), %rax
	movq	%rax, %rcx
	call	_ZNK9__gnu_cxx17__normal_iteratorIPNSt7__cxx1112basic_stringIcSt11char_traitsIcESaIcEEESt6vectorIS6_SaIS6_EEEdeEv
	movq	%rax, %rdx
	leaq	-96(%rbp), %rax
	movq	%rax, %rcx
.LEHB1:
	call	_ZNSt7__cxx1112basic_stringIcSt11char_traitsIcESaIcEEC1ERKS4_
.LEHE1:
	leaq	-96(%rbp), %rax
	movq	%rax, %rdx
	movq	.refptr._ZSt4cout(%rip), %rax
	movq	%rax, %rcx
.LEHB2:
	call	_ZStlsIcSt11char_traitsIcESaIcEERSt13basic_ostreamIT_T0_ES7_RKNSt7__cxx1112basic_stringIS4_S5_T1_EE
.LEHE2:
	leaq	-96(%rbp), %rax
	movq	%rax, %rcx
	call	_ZNSt7__cxx1112basic_stringIcSt11char_traitsIcESaIcEED1Ev
	leaq	-56(%rbp), %rax
	movq	%rax, %rcx
	call	_ZN9__gnu_cxx17__normal_iteratorIPNSt7__cxx1112basic_stringIcSt11char_traitsIcESaIcEEESt6vectorIS6_SaIS6_EEEppEv
.L9:
	leaq	-64(%rbp), %rdx
	leaq	-56(%rbp), %rax
	movq	%rax, %rcx
	call	_ZN9__gnu_cxxneIPNSt7__cxx1112basic_stringIcSt11char_traitsIcESaIcEEESt6vectorIS6_SaIS6_EEEEbRKNS_17__normal_iteratorIT_T0_EESG_
	testb	%al, %al
	jne	.L10
	movq	.refptr._ZSt4endlIcSt11char_traitsIcEERSt13basic_ostreamIT_T0_ES6_(%rip), %rax
	movq	%rax, %rdx
	movq	.refptr._ZSt4cout(%rip), %rax
	movq	%rax, %rcx
.LEHB3:
	call	_ZNSolsEPFRSoS_E
.LEHE3:
	movl	$0, %ebx
	leaq	-48(%rbp), %rax
	movq	%rax, %rcx
	call	_ZNSt6vectorINSt7__cxx1112basic_stringIcSt11char_traitsIcESaIcEEESaIS5_EED1Ev
	movl	%ebx, %eax
	jmp	.L18
.L15:
	movq	%rax, %rbx
	leaq	-17(%rbp), %rax
	movq	%rax, %rcx
	call	_ZNSt15__new_allocatorINSt7__cxx1112basic_stringIcSt11char_traitsIcESaIcEEEED2Ev
	nop
	movq	%rbx, %rax
	movq	%rax, %rcx
.LEHB4:
	call	_Unwind_Resume
.L16:
	movq	%rax, %rbx
	leaq	-96(%rbp), %rax
	movq	%rax, %rcx
	call	_ZNSt7__cxx1112basic_stringIcSt11char_traitsIcESaIcEED1Ev
	jmp	.L14
.L17:
	movq	%rax, %rbx
.L14:
	leaq	-48(%rbp), %rax
	movq	%rax, %rcx
	call	_ZNSt6vectorINSt7__cxx1112basic_stringIcSt11char_traitsIcESaIcEEESaIS5_EED1Ev
	movq	%rbx, %rax
	movq	%rax, %rcx
	call	_Unwind_Resume
.LEHE4:
.L18:
	addq	$136, %rsp
	popq	%rbx
	popq	%rbp
	ret
	.seh_handler	__gxx_personality_seh0, @unwind, @except
	.seh_handlerdata
.LLSDA2445:
	.byte	0xff
	.byte	0xff
	.byte	0x1
	.uleb128 .LLSDACSE2445-.LLSDACSB2445
.LLSDACSB2445:
	.uleb128 .LEHB0-.LFB2445
	.uleb128 .LEHE0-.LEHB0
	.uleb128 .L15-.LFB2445
	.uleb128 0
	.uleb128 .LEHB1-.LFB2445
	.uleb128 .LEHE1-.LEHB1
	.uleb128 .L17-.LFB2445
	.uleb128 0
	.uleb128 .LEHB2-.LFB2445
	.uleb128 .LEHE2-.LEHB2
	.uleb128 .L16-.LFB2445
	.uleb128 0
	.uleb128 .LEHB3-.LFB2445
	.uleb128 .LEHE3-.LEHB3
	.uleb128 .L17-.LFB2445
	.uleb128 0
	.uleb128 .LEHB4-.LFB2445
	.uleb128 .LEHE4-.LEHB4
	.uleb128 0
	.uleb128 0
.LLSDACSE2445:
	.text
	.seh_endproc
	.section	.text$_ZN9__gnu_cxx11char_traitsIcE6lengthEPKc,"x"
	.linkonce discard
	.align 2
	.globl	_ZN9__gnu_cxx11char_traitsIcE6lengthEPKc
	.def	_ZN9__gnu_cxx11char_traitsIcE6lengthEPKc;	.scl	2;	.type	32;	.endef
	.seh_proc	_ZN9__gnu_cxx11char_traitsIcE6lengthEPKc
_ZN9__gnu_cxx11char_traitsIcE6lengthEPKc:
.LFB2446:
	pushq	%rbp
	.seh_pushreg	%rbp
	movq	%rsp, %rbp
	.seh_setframe	%rbp, 0
	subq	$48, %rsp
	.seh_stackalloc	48
	.seh_endprologue
	movq	%rcx, 16(%rbp)
	movq	$0, -8(%rbp)
	jmp	.L20
.L21:
	addq	$1, -8(%rbp)
.L20:
	movb	$0, -9(%rbp)
	movq	16(%rbp), %rdx
	movq	-8(%rbp), %rax
	leaq	(%rdx,%rax), %rcx
	leaq	-9(%rbp), %rax
	movq	%rax, %rdx
	call	_ZN9__gnu_cxx11char_traitsIcE2eqERKcS3_
	xorl	$1, %eax
	testb	%al, %al
	jne	.L21
	movq	-8(%rbp), %rax
	addq	$48, %rsp
	popq	%rbp
	ret
	.seh_endproc
	.section	.text$_ZNSt7__cxx1112basic_stringIcSt11char_traitsIcESaIcEE12_Alloc_hiderD1Ev,"x"
	.linkonce discard
	.align 2
	.globl	_ZNSt7__cxx1112basic_stringIcSt11char_traitsIcESaIcEE12_Alloc_hiderD1Ev
	.def	_ZNSt7__cxx1112basic_stringIcSt11char_traitsIcESaIcEE12_Alloc_hiderD1Ev;	.scl	2;	.type	32;	.endef
	.seh_proc	_ZNSt7__cxx1112basic_stringIcSt11char_traitsIcESaIcEE12_Alloc_hiderD1Ev
_ZNSt7__cxx1112basic_stringIcSt11char_traitsIcESaIcEE12_Alloc_hiderD1Ev:
.LFB2545:
	pushq	%rbp
	.seh_pushreg	%rbp
	movq	%rsp, %rbp
	.seh_setframe	%rbp, 0
	subq	$48, %rsp
	.seh_stackalloc	48
	.seh_endprologue
	movq	%rcx, 16(%rbp)
	movq	16(%rbp), %rax
	movq	%rax, -8(%rbp)
	movq	-8(%rbp), %rax
	movq	%rax, %rcx
	call	_ZNSt15__new_allocatorIcED2Ev
	nop
	nop
	addq	$48, %rsp
	popq	%rbp
	ret
	.seh_endproc
	.section .rdata,"dr"
	.align 8
.LC0:
	.ascii "basic_string: construction from null is not valid\0"
	.section	.text$_ZNSt7__cxx1112basic_stringIcSt11char_traitsIcESaIcEEC1IS3_EEPKcRKS3_,"x"
	.linkonce discard
	.align 2
	.globl	_ZNSt7__cxx1112basic_stringIcSt11char_traitsIcESaIcEEC1IS3_EEPKcRKS3_
	.def	_ZNSt7__cxx1112basic_stringIcSt11char_traitsIcESaIcEEC1IS3_EEPKcRKS3_;	.scl	2;	.type	32;	.endef
	.seh_proc	_ZNSt7__cxx1112basic_stringIcSt11char_traitsIcESaIcEEC1IS3_EEPKcRKS3_
_ZNSt7__cxx1112basic_stringIcSt11char_traitsIcESaIcEEC1IS3_EEPKcRKS3_:
.LFB2721:
	pushq	%rbp
	.seh_pushreg	%rbp
	pushq	%rsi
	.seh_pushreg	%rsi
	pushq	%rbx
	.seh_pushreg	%rbx
	subq	$48, %rsp
	.seh_stackalloc	48
	leaq	48(%rsp), %rbp
	.seh_setframe	%rbp, 48
	.seh_endprologue
	movq	%rcx, 32(%rbp)
	movq	%rdx, 40(%rbp)
	movq	%r8, 48(%rbp)
	movq	32(%rbp), %rbx
	movq	32(%rbp), %rax
	movq	%rax, %rcx
	call	_ZNSt7__cxx1112basic_stringIcSt11char_traitsIcESaIcEE13_M_local_dataEv
	movq	48(%rbp), %rdx
	movq	%rdx, %r8
	movq	%rax, %rdx
	movq	%rbx, %rcx
	call	_ZNSt7__cxx1112basic_stringIcSt11char_traitsIcESaIcEE12_Alloc_hiderC1EPcRKS3_
	cmpq	$0, 40(%rbp)
	jne	.L25
	leaq	.LC0(%rip), %rax
	movq	%rax, %rcx
.LEHB5:
	call	_ZSt19__throw_logic_errorPKc
.L25:
	movq	40(%rbp), %rax
	movq	%rax, %rcx
	call	_ZNSt11char_traitsIcE6lengthEPKc
	movq	40(%rbp), %rdx
	addq	%rdx, %rax
	movq	%rax, -8(%rbp)
	movq	-8(%rbp), %rcx
	movq	40(%rbp), %rdx
	movq	32(%rbp), %rax
	movl	%esi, %r9d
	movq	%rcx, %r8
	movq	%rax, %rcx
	call	_ZNSt7__cxx1112basic_stringIcSt11char_traitsIcESaIcEE12_M_constructIPKcEEvT_S8_St20forward_iterator_tag
.LEHE5:
	jmp	.L28
.L27:
	movq	%rax, %rbx
	movq	32(%rbp), %rax
	movq	%rax, %rcx
	call	_ZNSt7__cxx1112basic_stringIcSt11char_traitsIcESaIcEE12_Alloc_hiderD1Ev
	movq	%rbx, %rax
	movq	%rax, %rcx
.LEHB6:
	call	_Unwind_Resume
	nop
.LEHE6:
.L28:
	addq	$48, %rsp
	popq	%rbx
	popq	%rsi
	popq	%rbp
	ret
	.seh_handler	__gxx_personality_seh0, @unwind, @except
	.seh_handlerdata
.LLSDA2721:
	.byte	0xff
	.byte	0xff
	.byte	0x1
	.uleb128 .LLSDACSE2721-.LLSDACSB2721
.LLSDACSB2721:
	.uleb128 .LEHB5-.LFB2721
	.uleb128 .LEHE5-.LEHB5
	.uleb128 .L27-.LFB2721
	.uleb128 0
	.uleb128 .LEHB6-.LFB2721
	.uleb128 .LEHE6-.LEHB6
	.uleb128 0
	.uleb128 0
.LLSDACSE2721:
	.section	.text$_ZNSt7__cxx1112basic_stringIcSt11char_traitsIcESaIcEEC1IS3_EEPKcRKS3_,"x"
	.linkonce discard
	.seh_endproc
	.section	.text$_ZNSt6vectorINSt7__cxx1112basic_stringIcSt11char_traitsIcESaIcEEESaIS5_EEC1IPKPKcvEET_SD_RKS6_,"x"
	.linkonce discard
	.align 2
	.globl	_ZNSt6vectorINSt7__cxx1112basic_stringIcSt11char_traitsIcESaIcEEESaIS5_EEC1IPKPKcvEET_SD_RKS6_
	.def	_ZNSt6vectorINSt7__cxx1112basic_stringIcSt11char_traitsIcESaIcEEESaIS5_EEC1IPKPKcvEET_SD_RKS6_;	.scl	2;	.type	32;	.endef
	.seh_proc	_ZNSt6vectorINSt7__cxx1112basic_stringIcSt11char_traitsIcESaIcEEESaIS5_EEC1IPKPKcvEET_SD_RKS6_
_ZNSt6vectorINSt7__cxx1112basic_stringIcSt11char_traitsIcESaIcEEESaIS5_EEC1IPKPKcvEET_SD_RKS6_:
.LFB2730:
	pushq	%rbp
	.seh_pushreg	%rbp
	pushq	%rbx
	.seh_pushreg	%rbx
	subq	$56, %rsp
	.seh_stackalloc	56
	leaq	48(%rsp), %rbp
	.seh_setframe	%rbp, 48
	.seh_endprologue
	movq	%rcx, 32(%rbp)
	movq	%rdx, 40(%rbp)
	movq	%r8, 48(%rbp)
	movq	%r9, 56(%rbp)
	movq	32(%rbp), %rax
	movq	56(%rbp), %rdx
	movq	%rax, %rcx
	call	_ZNSt12_Vector_baseINSt7__cxx1112basic_stringIcSt11char_traitsIcESaIcEEESaIS5_EEC2ERKS6_
	nop
	movq	40(%rbp), %rdx
	movq	48(%rbp), %rcx
	movq	32(%rbp), %rax
	movl	%ebx, %r9d
	movq	%rcx, %r8
	movq	%rax, %rcx
.LEHB7:
	call	_ZNSt6vectorINSt7__cxx1112basic_stringIcSt11char_traitsIcESaIcEEESaIS5_EE19_M_range_initializeIPKPKcEEvT_SD_St20forward_iterator_tag
.LEHE7:
	jmp	.L33
.L32:
	movq	%rax, %rbx
	movq	32(%rbp), %rax
	movq	%rax, %rcx
	call	_ZNSt12_Vector_baseINSt7__cxx1112basic_stringIcSt11char_traitsIcESaIcEEESaIS5_EED2Ev
	movq	%rbx, %rax
	movq	%rax, %rcx
.LEHB8:
	call	_Unwind_Resume
	nop
.LEHE8:
.L33:
	addq	$56, %rsp
	popq	%rbx
	popq	%rbp
	ret
	.seh_handler	__gxx_personality_seh0, @unwind, @except
	.seh_handlerdata
.LLSDA2730:
	.byte	0xff
	.byte	0xff
	.byte	0x1
	.uleb128 .LLSDACSE2730-.LLSDACSB2730
.LLSDACSB2730:
	.uleb128 .LEHB7-.LFB2730
	.uleb128 .LEHE7-.LEHB7
	.uleb128 .L32-.LFB2730
	.uleb128 0
	.uleb128 .LEHB8-.LFB2730
	.uleb128 .LEHE8-.LEHB8
	.uleb128 0
	.uleb128 0
.LLSDACSE2730:
	.section	.text$_ZNSt6vectorINSt7__cxx1112basic_stringIcSt11char_traitsIcESaIcEEESaIS5_EEC1IPKPKcvEET_SD_RKS6_,"x"
	.linkonce discard
	.seh_endproc
	.section	.text$_ZNSt6vectorINSt7__cxx1112basic_stringIcSt11char_traitsIcESaIcEEESaIS5_EED1Ev,"x"
	.linkonce discard
	.align 2
	.globl	_ZNSt6vectorINSt7__cxx1112basic_stringIcSt11char_traitsIcESaIcEEESaIS5_EED1Ev
	.def	_ZNSt6vectorINSt7__cxx1112basic_stringIcSt11char_traitsIcESaIcEEESaIS5_EED1Ev;	.scl	2;	.type	32;	.endef
	.seh_proc	_ZNSt6vectorINSt7__cxx1112basic_stringIcSt11char_traitsIcESaIcEEESaIS5_EED1Ev
_ZNSt6vectorINSt7__cxx1112basic_stringIcSt11char_traitsIcESaIcEEESaIS5_EED1Ev:
.LFB2733:
	pushq	%rbp
	.seh_pushreg	%rbp
	movq	%rsp, %rbp
	.seh_setframe	%rbp, 0
	subq	$64, %rsp
	.seh_stackalloc	64
	.seh_endprologue
	movq	%rcx, 16(%rbp)
	movq	16(%rbp), %rax
	movq	%rax, %rcx
	call	_ZNSt12_Vector_baseINSt7__cxx1112basic_stringIcSt11char_traitsIcESaIcEEESaIS5_EE19_M_get_Tp_allocatorEv
	movq	16(%rbp), %rdx
	movq	8(%rdx), %rdx
	movq	16(%rbp), %rcx
	movq	(%rcx), %rcx
	movq	%rcx, -8(%rbp)
	movq	%rdx, -16(%rbp)
	movq	%rax, -24(%rbp)
	movq	-16(%rbp), %rdx
	movq	-8(%rbp), %rax
	movq	%rax, %rcx
	call	_ZSt8_DestroyIPNSt7__cxx1112basic_stringIcSt11char_traitsIcESaIcEEEEvT_S7_
	nop
	movq	16(%rbp), %rax
	movq	%rax, %rcx
	call	_ZNSt12_Vector_baseINSt7__cxx1112basic_stringIcSt11char_traitsIcESaIcEEESaIS5_EED2Ev
	nop
	addq	$64, %rsp
	popq	%rbp
	ret
	.seh_handler	__gxx_personality_seh0, @unwind, @except
	.seh_handlerdata
.LLSDA2733:
	.byte	0xff
	.byte	0xff
	.byte	0x1
	.uleb128 .LLSDACSE2733-.LLSDACSB2733
.LLSDACSB2733:
.LLSDACSE2733:
	.section	.text$_ZNSt6vectorINSt7__cxx1112basic_stringIcSt11char_traitsIcESaIcEEESaIS5_EED1Ev,"x"
	.linkonce discard
	.seh_endproc
	.section	.text$_ZNSt6vectorINSt7__cxx1112basic_stringIcSt11char_traitsIcESaIcEEESaIS5_EE5beginEv,"x"
	.linkonce discard
	.align 2
	.globl	_ZNSt6vectorINSt7__cxx1112basic_stringIcSt11char_traitsIcESaIcEEESaIS5_EE5beginEv
	.def	_ZNSt6vectorINSt7__cxx1112basic_stringIcSt11char_traitsIcESaIcEEESaIS5_EE5beginEv;	.scl	2;	.type	32;	.endef
	.seh_proc	_ZNSt6vectorINSt7__cxx1112basic_stringIcSt11char_traitsIcESaIcEEESaIS5_EE5beginEv
_ZNSt6vectorINSt7__cxx1112basic_stringIcSt11char_traitsIcESaIcEEESaIS5_EE5beginEv:
.LFB2734:
	pushq	%rbp
	.seh_pushreg	%rbp
	movq	%rsp, %rbp
	.seh_setframe	%rbp, 0
	subq	$48, %rsp
	.seh_stackalloc	48
	.seh_endprologue
	movq	%rcx, 16(%rbp)
	movq	16(%rbp), %rdx
	leaq	-8(%rbp), %rax
	movq	%rax, %rcx
	call	_ZN9__gnu_cxx17__normal_iteratorIPNSt7__cxx1112basic_stringIcSt11char_traitsIcESaIcEEESt6vectorIS6_SaIS6_EEEC1ERKS7_
	movq	-8(%rbp), %rax
	addq	$48, %rsp
	popq	%rbp
	ret
	.seh_endproc
	.section	.text$_ZNSt6vectorINSt7__cxx1112basic_stringIcSt11char_traitsIcESaIcEEESaIS5_EE3endEv,"x"
	.linkonce discard
	.align 2
	.globl	_ZNSt6vectorINSt7__cxx1112basic_stringIcSt11char_traitsIcESaIcEEESaIS5_EE3endEv
	.def	_ZNSt6vectorINSt7__cxx1112basic_stringIcSt11char_traitsIcESaIcEEESaIS5_EE3endEv;	.scl	2;	.type	32;	.endef
	.seh_proc	_ZNSt6vectorINSt7__cxx1112basic_stringIcSt11char_traitsIcESaIcEEESaIS5_EE3endEv
_ZNSt6vectorINSt7__cxx1112basic_stringIcSt11char_traitsIcESaIcEEESaIS5_EE3endEv:
.LFB2735:
	pushq	%rbp
	.seh_pushreg	%rbp
	movq	%rsp, %rbp
	.seh_setframe	%rbp, 0
	subq	$48, %rsp
	.seh_stackalloc	48
	.seh_endprologue
	movq	%rcx, 16(%rbp)
	movq	16(%rbp), %rax
	leaq	8(%rax), %rdx
	leaq	-8(%rbp), %rax
	movq	%rax, %rcx
	call	_ZN9__gnu_cxx17__normal_iteratorIPNSt7__cxx1112basic_stringIcSt11char_traitsIcESaIcEEESt6vectorIS6_SaIS6_EEEC1ERKS7_
	movq	-8(%rbp), %rax
	addq	$48, %rsp
	popq	%rbp
	ret
	.seh_endproc
	.section	.text$_ZN9__gnu_cxxneIPNSt7__cxx1112basic_stringIcSt11char_traitsIcESaIcEEESt6vectorIS6_SaIS6_EEEEbRKNS_17__normal_iteratorIT_T0_EESG_,"x"
	.linkonce discard
	.globl	_ZN9__gnu_cxxneIPNSt7__cxx1112basic_stringIcSt11char_traitsIcESaIcEEESt6vectorIS6_SaIS6_EEEEbRKNS_17__normal_iteratorIT_T0_EESG_
	.def	_ZN9__gnu_cxxneIPNSt7__cxx1112basic_stringIcSt11char_traitsIcESaIcEEESt6vectorIS6_SaIS6_EEEEbRKNS_17__normal_iteratorIT_T0_EESG_;	.scl	2;	.type	32;	.endef
	.seh_proc	_ZN9__gnu_cxxneIPNSt7__cxx1112basic_stringIcSt11char_traitsIcESaIcEEESt6vectorIS6_SaIS6_EEEEbRKNS_17__normal_iteratorIT_T0_EESG_
_ZN9__gnu_cxxneIPNSt7__cxx1112basic_stringIcSt11char_traitsIcESaIcEEESt6vectorIS6_SaIS6_EEEEbRKNS_17__normal_iteratorIT_T0_EESG_:
.LFB2736:
	pushq	%rbp
	.seh_pushreg	%rbp
	pushq	%rbx
	.seh_pushreg	%rbx
	subq	$40, %rsp
	.seh_stackalloc	40
	leaq	32(%rsp), %rbp
	.seh_setframe	%rbp, 32
	.seh_endprologue
	movq	%rcx, 32(%rbp)
	movq	%rdx, 40(%rbp)
	movq	32(%rbp), %rax
	movq	%rax, %rcx
	call	_ZNK9__gnu_cxx17__normal_iteratorIPNSt7__cxx1112basic_stringIcSt11char_traitsIcESaIcEEESt6vectorIS6_SaIS6_EEE4baseEv
	movq	(%rax), %rbx
	movq	40(%rbp), %rax
	movq	%rax, %rcx
	call	_ZNK9__gnu_cxx17__normal_iteratorIPNSt7__cxx1112basic_stringIcSt11char_traitsIcESaIcEEESt6vectorIS6_SaIS6_EEE4baseEv
	movq	(%rax), %rax
	cmpq	%rax, %rbx
	setne	%al
	addq	$40, %rsp
	popq	%rbx
	popq	%rbp
	ret
	.seh_endproc
	.section	.text$_ZN9__gnu_cxx17__normal_iteratorIPNSt7__cxx1112basic_stringIcSt11char_traitsIcESaIcEEESt6vectorIS6_SaIS6_EEEppEv,"x"
	.linkonce discard
	.align 2
	.globl	_ZN9__gnu_cxx17__normal_iteratorIPNSt7__cxx1112basic_stringIcSt11char_traitsIcESaIcEEESt6vectorIS6_SaIS6_EEEppEv
	.def	_ZN9__gnu_cxx17__normal_iteratorIPNSt7__cxx1112basic_stringIcSt11char_traitsIcESaIcEEESt6vectorIS6_SaIS6_EEEppEv;	.scl	2;	.type	32;	.endef
	.seh_proc	_ZN9__gnu_cxx17__normal_iteratorIPNSt7__cxx1112basic_stringIcSt11char_traitsIcESaIcEEESt6vectorIS6_SaIS6_EEEppEv
_ZN9__gnu_cxx17__normal_iteratorIPNSt7__cxx1112basic_stringIcSt11char_traitsIcESaIcEEESt6vectorIS6_SaIS6_EEEppEv:
.LFB2737:
	pushq	%rbp
	.seh_pushreg	%rbp
	movq	%rsp, %rbp
	.seh_setframe	%rbp, 0
	.seh_endprologue
	movq	%rcx, 16(%rbp)
	movq	16(%rbp), %rax
	movq	(%rax), %rax
	leaq	32(%rax), %rdx
	movq	16(%rbp), %rax
	movq	%rdx, (%rax)
	movq	16(%rbp), %rax
	popq	%rbp
	ret
	.seh_endproc
	.section	.text$_ZNK9__gnu_cxx17__normal_iteratorIPNSt7__cxx1112basic_stringIcSt11char_traitsIcESaIcEEESt6vectorIS6_SaIS6_EEEdeEv,"x"
	.linkonce discard
	.align 2
	.globl	_ZNK9__gnu_cxx17__normal_iteratorIPNSt7__cxx1112basic_stringIcSt11char_traitsIcESaIcEEESt6vectorIS6_SaIS6_EEEdeEv
	.def	_ZNK9__gnu_cxx17__normal_iteratorIPNSt7__cxx1112basic_stringIcSt11char_traitsIcESaIcEEESt6vectorIS6_SaIS6_EEEdeEv;	.scl	2;	.type	32;	.endef
	.seh_proc	_ZNK9__gnu_cxx17__normal_iteratorIPNSt7__cxx1112basic_stringIcSt11char_traitsIcESaIcEEESt6vectorIS6_SaIS6_EEEdeEv
_ZNK9__gnu_cxx17__normal_iteratorIPNSt7__cxx1112basic_stringIcSt11char_traitsIcESaIcEEESt6vectorIS6_SaIS6_EEEdeEv:
.LFB2738:
	pushq	%rbp
	.seh_pushreg	%rbp
	movq	%rsp, %rbp
	.seh_setframe	%rbp, 0
	.seh_endprologue
	movq	%rcx, 16(%rbp)
	movq	16(%rbp), %rax
	movq	(%rax), %rax
	popq	%rbp
	ret
	.seh_endproc
	.section	.text$_ZN9__gnu_cxx11char_traitsIcE2eqERKcS3_,"x"
	.linkonce discard
	.globl	_ZN9__gnu_cxx11char_traitsIcE2eqERKcS3_
	.def	_ZN9__gnu_cxx11char_traitsIcE2eqERKcS3_;	.scl	2;	.type	32;	.endef
	.seh_proc	_ZN9__gnu_cxx11char_traitsIcE2eqERKcS3_
_ZN9__gnu_cxx11char_traitsIcE2eqERKcS3_:
.LFB2745:
	pushq	%rbp
	.seh_pushreg	%rbp
	movq	%rsp, %rbp
	.seh_setframe	%rbp, 0
	.seh_endprologue
	movq	%rcx, 16(%rbp)
	movq	%rdx, 24(%rbp)
	movq	16(%rbp), %rax
	movzbl	(%rax), %edx
	movq	24(%rbp), %rax
	movzbl	(%rax), %eax
	cmpb	%al, %dl
	sete	%al
	popq	%rbp
	ret
	.seh_endproc
	.section	.text$_ZNSt15__new_allocatorIcED2Ev,"x"
	.linkonce discard
	.align 2
	.globl	_ZNSt15__new_allocatorIcED2Ev
	.def	_ZNSt15__new_allocatorIcED2Ev;	.scl	2;	.type	32;	.endef
	.seh_proc	_ZNSt15__new_allocatorIcED2Ev
_ZNSt15__new_allocatorIcED2Ev:
.LFB2799:
	pushq	%rbp
	.seh_pushreg	%rbp
	movq	%rsp, %rbp
	.seh_setframe	%rbp, 0
	.seh_endprologue
	movq	%rcx, 16(%rbp)
	nop
	popq	%rbp
	ret
	.seh_endproc
	.section	.text$_ZZNSt7__cxx1112basic_stringIcSt11char_traitsIcESaIcEE12_M_constructIPKcEEvT_S8_St20forward_iterator_tagEN6_GuardC1EPS4_,"x"
	.linkonce discard
	.align 2
	.globl	_ZZNSt7__cxx1112basic_stringIcSt11char_traitsIcESaIcEE12_M_constructIPKcEEvT_S8_St20forward_iterator_tagEN6_GuardC1EPS4_
	.def	_ZZNSt7__cxx1112basic_stringIcSt11char_traitsIcESaIcEE12_M_constructIPKcEEvT_S8_St20forward_iterator_tagEN6_GuardC1EPS4_;	.scl	2;	.type	32;	.endef
	.seh_proc	_ZZNSt7__cxx1112basic_stringIcSt11char_traitsIcESaIcEE12_M_constructIPKcEEvT_S8_St20forward_iterator_tagEN6_GuardC1EPS4_
_ZZNSt7__cxx1112basic_stringIcSt11char_traitsIcESaIcEE12_M_constructIPKcEEvT_S8_St20forward_iterator_tagEN6_GuardC1EPS4_:
.LFB2807:
	pushq	%rbp
	.seh_pushreg	%rbp
	movq	%rsp, %rbp
	.seh_setframe	%rbp, 0
	.seh_endprologue
	movq	%rcx, 16(%rbp)
	movq	%rdx, 24(%rbp)
	movq	16(%rbp), %rax
	movq	24(%rbp), %rdx
	movq	%rdx, (%rax)
	nop
	popq	%rbp
	ret
	.seh_endproc
	.section	.text$_ZZNSt7__cxx1112basic_stringIcSt11char_traitsIcESaIcEE12_M_constructIPKcEEvT_S8_St20forward_iterator_tagEN6_GuardD1Ev,"x"
	.linkonce discard
	.align 2
	.globl	_ZZNSt7__cxx1112basic_stringIcSt11char_traitsIcESaIcEE12_M_constructIPKcEEvT_S8_St20forward_iterator_tagEN6_GuardD1Ev
	.def	_ZZNSt7__cxx1112basic_stringIcSt11char_traitsIcESaIcEE12_M_constructIPKcEEvT_S8_St20forward_iterator_tagEN6_GuardD1Ev;	.scl	2;	.type	32;	.endef
	.seh_proc	_ZZNSt7__cxx1112basic_stringIcSt11char_traitsIcESaIcEE12_M_constructIPKcEEvT_S8_St20forward_iterator_tagEN6_GuardD1Ev
_ZZNSt7__cxx1112basic_stringIcSt11char_traitsIcESaIcEE12_M_constructIPKcEEvT_S8_St20forward_iterator_tagEN6_GuardD1Ev:
.LFB2810:
	pushq	%rbp
	.seh_pushreg	%rbp
	movq	%rsp, %rbp
	.seh_setframe	%rbp, 0
	subq	$32, %rsp
	.seh_stackalloc	32
	.seh_endprologue
	movq	%rcx, 16(%rbp)
	movq	16(%rbp), %rax
	movq	(%rax), %rax
	testq	%rax, %rax
	je	.L51
	movq	16(%rbp), %rax
	movq	(%rax), %rax
	movq	%rax, %rcx
	call	_ZNSt7__cxx1112basic_stringIcSt11char_traitsIcESaIcEE10_M_disposeEv
.L51:
	nop
	addq	$32, %rsp
	popq	%rbp
	ret
	.seh_handler	__gxx_personality_seh0, @unwind, @except
	.seh_handlerdata
.LLSDA2810:
	.byte	0xff
	.byte	0xff
	.byte	0x1
	.uleb128 .LLSDACSE2810-.LLSDACSB2810
.LLSDACSB2810:
.LLSDACSE2810:
	.section	.text$_ZZNSt7__cxx1112basic_stringIcSt11char_traitsIcESaIcEE12_M_constructIPKcEEvT_S8_St20forward_iterator_tagEN6_GuardD1Ev,"x"
	.linkonce discard
	.seh_endproc
	.section	.text$_ZNSt7__cxx1112basic_stringIcSt11char_traitsIcESaIcEE12_M_constructIPKcEEvT_S8_St20forward_iterator_tag,"x"
	.linkonce discard
	.align 2
	.globl	_ZNSt7__cxx1112basic_stringIcSt11char_traitsIcESaIcEE12_M_constructIPKcEEvT_S8_St20forward_iterator_tag
	.def	_ZNSt7__cxx1112basic_stringIcSt11char_traitsIcESaIcEE12_M_constructIPKcEEvT_S8_St20forward_iterator_tag;	.scl	2;	.type	32;	.endef
	.seh_proc	_ZNSt7__cxx1112basic_stringIcSt11char_traitsIcESaIcEE12_M_constructIPKcEEvT_S8_St20forward_iterator_tag
_ZNSt7__cxx1112basic_stringIcSt11char_traitsIcESaIcEE12_M_constructIPKcEEvT_S8_St20forward_iterator_tag:
.LFB2804:
	pushq	%rbp
	.seh_pushreg	%rbp
	pushq	%rbx
	.seh_pushreg	%rbx
	subq	$104, %rsp
	.seh_stackalloc	104
	leaq	96(%rsp), %rbp
	.seh_setframe	%rbp, 96
	.seh_endprologue
	movq	%rcx, 32(%rbp)
	movq	%rdx, 40(%rbp)
	movq	%r8, 48(%rbp)
	movq	40(%rbp), %rax
	movq	%rax, -56(%rbp)
	movq	48(%rbp), %rax
	movq	%rax, -8(%rbp)
	nop
	movq	-56(%rbp), %rax
	movq	%rax, -16(%rbp)
	movq	-8(%rbp), %rax
	movq	%rax, -24(%rbp)
	movq	-24(%rbp), %rax
	subq	-16(%rbp), %rax
	nop
	movq	%rax, -40(%rbp)
	movq	-40(%rbp), %rax
	cmpq	$15, %rax
	jbe	.L56
	leaq	-40(%rbp), %rdx
	movq	32(%rbp), %rax
	movl	$0, %r8d
	movq	%rax, %rcx
.LEHB9:
	call	_ZNSt7__cxx1112basic_stringIcSt11char_traitsIcESaIcEE9_M_createERyy
.LEHE9:
	movq	%rax, %rdx
	movq	32(%rbp), %rax
	movq	%rax, %rcx
	call	_ZNSt7__cxx1112basic_stringIcSt11char_traitsIcESaIcEE7_M_dataEPc
	movq	-40(%rbp), %rdx
	movq	32(%rbp), %rax
	movq	%rax, %rcx
	call	_ZNSt7__cxx1112basic_stringIcSt11char_traitsIcESaIcEE11_M_capacityEy
	jmp	.L57
.L56:
	movq	32(%rbp), %rax
	movq	%rax, -32(%rbp)
	nop
.L57:
	movq	32(%rbp), %rdx
	leaq	-48(%rbp), %rax
	movq	%rax, %rcx
	call	_ZZNSt7__cxx1112basic_stringIcSt11char_traitsIcESaIcEE12_M_constructIPKcEEvT_S8_St20forward_iterator_tagEN6_GuardC1EPS4_
	movq	32(%rbp), %rax
	movq	%rax, %rcx
	call	_ZNKSt7__cxx1112basic_stringIcSt11char_traitsIcESaIcEE7_M_dataEv
	movq	%rax, %rcx
	movq	48(%rbp), %rdx
	movq	40(%rbp), %rax
	movq	%rdx, %r8
	movq	%rax, %rdx
	call	_ZNSt7__cxx1112basic_stringIcSt11char_traitsIcESaIcEE13_S_copy_charsEPcPKcS7_
	movq	$0, -48(%rbp)
	movq	-40(%rbp), %rdx
	movq	32(%rbp), %rax
	movq	%rax, %rcx
.LEHB10:
	call	_ZNSt7__cxx1112basic_stringIcSt11char_traitsIcESaIcEE13_M_set_lengthEy
.LEHE10:
	leaq	-48(%rbp), %rax
	movq	%rax, %rcx
	call	_ZZNSt7__cxx1112basic_stringIcSt11char_traitsIcESaIcEE12_M_constructIPKcEEvT_S8_St20forward_iterator_tagEN6_GuardD1Ev
	jmp	.L60
.L59:
	movq	%rax, %rbx
	leaq	-48(%rbp), %rax
	movq	%rax, %rcx
	call	_ZZNSt7__cxx1112basic_stringIcSt11char_traitsIcESaIcEE12_M_constructIPKcEEvT_S8_St20forward_iterator_tagEN6_GuardD1Ev
	movq	%rbx, %rax
	movq	%rax, %rcx
.LEHB11:
	call	_Unwind_Resume
	nop
.LEHE11:
.L60:
	addq	$104, %rsp
	popq	%rbx
	popq	%rbp
	ret
	.seh_handler	__gxx_personality_seh0, @unwind, @except
	.seh_handlerdata
.LLSDA2804:
	.byte	0xff
	.byte	0xff
	.byte	0x1
	.uleb128 .LLSDACSE2804-.LLSDACSB2804
.LLSDACSB2804:
	.uleb128 .LEHB9-.LFB2804
	.uleb128 .LEHE9-.LEHB9
	.uleb128 0
	.uleb128 0
	.uleb128 .LEHB10-.LFB2804
	.uleb128 .LEHE10-.LEHB10
	.uleb128 .L59-.LFB2804
	.uleb128 0
	.uleb128 .LEHB11-.LFB2804
	.uleb128 .LEHE11-.LEHB11
	.uleb128 0
	.uleb128 0
.LLSDACSE2804:
	.section	.text$_ZNSt7__cxx1112basic_stringIcSt11char_traitsIcESaIcEE12_M_constructIPKcEEvT_S8_St20forward_iterator_tag,"x"
	.linkonce discard
	.seh_endproc
	.section	.text$_ZNSt15__new_allocatorINSt7__cxx1112basic_stringIcSt11char_traitsIcESaIcEEEED2Ev,"x"
	.linkonce discard
	.align 2
	.globl	_ZNSt15__new_allocatorINSt7__cxx1112basic_stringIcSt11char_traitsIcESaIcEEEED2Ev
	.def	_ZNSt15__new_allocatorINSt7__cxx1112basic_stringIcSt11char_traitsIcESaIcEEEED2Ev;	.scl	2;	.type	32;	.endef
	.seh_proc	_ZNSt15__new_allocatorINSt7__cxx1112basic_stringIcSt11char_traitsIcESaIcEEEED2Ev
_ZNSt15__new_allocatorINSt7__cxx1112basic_stringIcSt11char_traitsIcESaIcEEEED2Ev:
.LFB2861:
	pushq	%rbp
	.seh_pushreg	%rbp
	movq	%rsp, %rbp
	.seh_setframe	%rbp, 0
	.seh_endprologue
	movq	%rcx, 16(%rbp)
	nop
	popq	%rbp
	ret
	.seh_endproc
	.section	.text$_ZNSt12_Vector_baseINSt7__cxx1112basic_stringIcSt11char_traitsIcESaIcEEESaIS5_EE12_Vector_implD1Ev,"x"
	.linkonce discard
	.align 2
	.globl	_ZNSt12_Vector_baseINSt7__cxx1112basic_stringIcSt11char_traitsIcESaIcEEESaIS5_EE12_Vector_implD1Ev
	.def	_ZNSt12_Vector_baseINSt7__cxx1112basic_stringIcSt11char_traitsIcESaIcEEESaIS5_EE12_Vector_implD1Ev;	.scl	2;	.type	32;	.endef
	.seh_proc	_ZNSt12_Vector_baseINSt7__cxx1112basic_stringIcSt11char_traitsIcESaIcEEESaIS5_EE12_Vector_implD1Ev
_ZNSt12_Vector_baseINSt7__cxx1112basic_stringIcSt11char_traitsIcESaIcEEESaIS5_EE12_Vector_implD1Ev:
.LFB2866:
	pushq	%rbp
	.seh_pushreg	%rbp
	movq	%rsp, %rbp
	.seh_setframe	%rbp, 0
	subq	$48, %rsp
	.seh_stackalloc	48
	.seh_endprologue
	movq	%rcx, 16(%rbp)
	movq	16(%rbp), %rax
	movq	%rax, -8(%rbp)
	movq	-8(%rbp), %rax
	movq	%rax, %rcx
	call	_ZNSt15__new_allocatorINSt7__cxx1112basic_stringIcSt11char_traitsIcESaIcEEEED2Ev
	nop
	nop
	addq	$48, %rsp
	popq	%rbp
	ret
	.seh_endproc
	.section	.text$_ZNSt12_Vector_baseINSt7__cxx1112basic_stringIcSt11char_traitsIcESaIcEEESaIS5_EEC2ERKS6_,"x"
	.linkonce discard
	.align 2
	.globl	_ZNSt12_Vector_baseINSt7__cxx1112basic_stringIcSt11char_traitsIcESaIcEEESaIS5_EEC2ERKS6_
	.def	_ZNSt12_Vector_baseINSt7__cxx1112basic_stringIcSt11char_traitsIcESaIcEEESaIS5_EEC2ERKS6_;	.scl	2;	.type	32;	.endef
	.seh_proc	_ZNSt12_Vector_baseINSt7__cxx1112basic_stringIcSt11char_traitsIcESaIcEEESaIS5_EEC2ERKS6_
_ZNSt12_Vector_baseINSt7__cxx1112basic_stringIcSt11char_traitsIcESaIcEEESaIS5_EEC2ERKS6_:
.LFB2867:
	pushq	%rbp
	.seh_pushreg	%rbp
	movq	%rsp, %rbp
	.seh_setframe	%rbp, 0
	subq	$32, %rsp
	.seh_stackalloc	32
	.seh_endprologue
	movq	%rcx, 16(%rbp)
	movq	%rdx, 24(%rbp)
	movq	16(%rbp), %rax
	movq	24(%rbp), %rdx
	movq	%rax, %rcx
	call	_ZNSt12_Vector_baseINSt7__cxx1112basic_stringIcSt11char_traitsIcESaIcEEESaIS5_EE12_Vector_implC1ERKS6_
	nop
	addq	$32, %rsp
	popq	%rbp
	ret
	.seh_endproc
	.section	.text$_ZNSt12_Vector_baseINSt7__cxx1112basic_stringIcSt11char_traitsIcESaIcEEESaIS5_EED2Ev,"x"
	.linkonce discard
	.align 2
	.globl	_ZNSt12_Vector_baseINSt7__cxx1112basic_stringIcSt11char_traitsIcESaIcEEESaIS5_EED2Ev
	.def	_ZNSt12_Vector_baseINSt7__cxx1112basic_stringIcSt11char_traitsIcESaIcEEESaIS5_EED2Ev;	.scl	2;	.type	32;	.endef
	.seh_proc	_ZNSt12_Vector_baseINSt7__cxx1112basic_stringIcSt11char_traitsIcESaIcEEESaIS5_EED2Ev
_ZNSt12_Vector_baseINSt7__cxx1112basic_stringIcSt11char_traitsIcESaIcEEESaIS5_EED2Ev:
.LFB2870:
	pushq	%rbp
	.seh_pushreg	%rbp
	movq	%rsp, %rbp
	.seh_setframe	%rbp, 0
	subq	$32, %rsp
	.seh_stackalloc	32
	.seh_endprologue
	movq	%rcx, 16(%rbp)
	movq	16(%rbp), %rax
	movq	16(%rax), %rdx
	movq	16(%rbp), %rax
	movq	(%rax), %rax
	subq	%rax, %rdx
	movq	%rdx, %rax
	sarq	$5, %rax
	movq	%rax, %rcx
	movq	16(%rbp), %rax
	movq	(%rax), %rdx
	movq	16(%rbp), %rax
	movq	%rcx, %r8
	movq	%rax, %rcx
	call	_ZNSt12_Vector_baseINSt7__cxx1112basic_stringIcSt11char_traitsIcESaIcEEESaIS5_EE13_M_deallocateEPS5_y
	movq	16(%rbp), %rax
	movq	%rax, %rcx
	call	_ZNSt12_Vector_baseINSt7__cxx1112basic_stringIcSt11char_traitsIcESaIcEEESaIS5_EE12_Vector_implD1Ev
	nop
	addq	$32, %rsp
	popq	%rbp
	ret
	.seh_handler	__gxx_personality_seh0, @unwind, @except
	.seh_handlerdata
.LLSDA2870:
	.byte	0xff
	.byte	0xff
	.byte	0x1
	.uleb128 .LLSDACSE2870-.LLSDACSB2870
.LLSDACSB2870:
.LLSDACSE2870:
	.section	.text$_ZNSt12_Vector_baseINSt7__cxx1112basic_stringIcSt11char_traitsIcESaIcEEESaIS5_EED2Ev,"x"
	.linkonce discard
	.seh_endproc
	.section	.text$_ZNSt6vectorINSt7__cxx1112basic_stringIcSt11char_traitsIcESaIcEEESaIS5_EE19_M_range_initializeIPKPKcEEvT_SD_St20forward_iterator_tag,"x"
	.linkonce discard
	.align 2
	.globl	_ZNSt6vectorINSt7__cxx1112basic_stringIcSt11char_traitsIcESaIcEEESaIS5_EE19_M_range_initializeIPKPKcEEvT_SD_St20forward_iterator_tag
	.def	_ZNSt6vectorINSt7__cxx1112basic_stringIcSt11char_traitsIcESaIcEEESaIS5_EE19_M_range_initializeIPKPKcEEvT_SD_St20forward_iterator_tag;	.scl	2;	.type	32;	.endef
	.seh_proc	_ZNSt6vectorINSt7__cxx1112basic_stringIcSt11char_traitsIcESaIcEEESaIS5_EE19_M_range_initializeIPKPKcEEvT_SD_St20forward_iterator_tag
_ZNSt6vectorINSt7__cxx1112basic_stringIcSt11char_traitsIcESaIcEEESaIS5_EE19_M_range_initializeIPKPKcEEvT_SD_St20forward_iterator_tag:
.LFB2873:
	pushq	%rbp
	.seh_pushreg	%rbp
	pushq	%rbx
	.seh_pushreg	%rbx
	subq	$88, %rsp
	.seh_stackalloc	88
	leaq	80(%rsp), %rbp
	.seh_setframe	%rbp, 80
	.seh_endprologue
	movq	%rcx, 32(%rbp)
	movq	%rdx, 40(%rbp)
	movq	%r8, 48(%rbp)
	movq	40(%rbp), %rax
	movq	%rax, -40(%rbp)
	movq	48(%rbp), %rax
	movq	%rax, -16(%rbp)
	nop
	movq	-40(%rbp), %rax
	movq	%rax, -24(%rbp)
	movq	-16(%rbp), %rax
	movq	%rax, -32(%rbp)
	movq	-32(%rbp), %rax
	subq	-24(%rbp), %rax
	sarq	$3, %rax
	nop
	movq	%rax, -8(%rbp)
	movq	32(%rbp), %rbx
	movq	32(%rbp), %rax
	movq	%rax, %rcx
	call	_ZNSt12_Vector_baseINSt7__cxx1112basic_stringIcSt11char_traitsIcESaIcEEESaIS5_EE19_M_get_Tp_allocatorEv
	movq	%rax, %rdx
	movq	-8(%rbp), %rax
	movq	%rax, %rcx
	call	_ZNSt6vectorINSt7__cxx1112basic_stringIcSt11char_traitsIcESaIcEEESaIS5_EE17_S_check_init_lenEyRKS6_
	movq	%rax, %rdx
	movq	%rbx, %rcx
	call	_ZNSt12_Vector_baseINSt7__cxx1112basic_stringIcSt11char_traitsIcESaIcEEESaIS5_EE11_M_allocateEy
	movq	32(%rbp), %rdx
	movq	%rax, (%rdx)
	movq	32(%rbp), %rax
	movq	(%rax), %rax
	movq	-8(%rbp), %rdx
	salq	$5, %rdx
	addq	%rax, %rdx
	movq	32(%rbp), %rax
	movq	%rdx, 16(%rax)
	movq	32(%rbp), %rax
	movq	%rax, %rcx
	call	_ZNSt12_Vector_baseINSt7__cxx1112basic_stringIcSt11char_traitsIcESaIcEEESaIS5_EE19_M_get_Tp_allocatorEv
	movq	%rax, %rcx
	movq	32(%rbp), %rax
	movq	(%rax), %r8
	movq	48(%rbp), %rdx
	movq	40(%rbp), %rax
	movq	%rcx, %r9
	movq	%rax, %rcx
	call	_ZSt22__uninitialized_copy_aIPKPKcPNSt7__cxx1112basic_stringIcSt11char_traitsIcESaIcEEES9_ET0_T_SC_SB_RSaIT1_E
	movq	32(%rbp), %rdx
	movq	%rax, 8(%rdx)
	nop
	addq	$88, %rsp
	popq	%rbx
	popq	%rbp
	ret
	.seh_endproc
	.section	.text$_ZNSt12_Vector_baseINSt7__cxx1112basic_stringIcSt11char_traitsIcESaIcEEESaIS5_EE19_M_get_Tp_allocatorEv,"x"
	.linkonce discard
	.align 2
	.globl	_ZNSt12_Vector_baseINSt7__cxx1112basic_stringIcSt11char_traitsIcESaIcEEESaIS5_EE19_M_get_Tp_allocatorEv
	.def	_ZNSt12_Vector_baseINSt7__cxx1112basic_stringIcSt11char_traitsIcESaIcEEESaIS5_EE19_M_get_Tp_allocatorEv;	.scl	2;	.type	32;	.endef
	.seh_proc	_ZNSt12_Vector_baseINSt7__cxx1112basic_stringIcSt11char_traitsIcESaIcEEESaIS5_EE19_M_get_Tp_allocatorEv
_ZNSt12_Vector_baseINSt7__cxx1112basic_stringIcSt11char_traitsIcESaIcEEESaIS5_EE19_M_get_Tp_allocatorEv:
.LFB2875:
	pushq	%rbp
	.seh_pushreg	%rbp
	movq	%rsp, %rbp
	.seh_setframe	%rbp, 0
	.seh_endprologue
	movq	%rcx, 16(%rbp)
	movq	16(%rbp), %rax
	popq	%rbp
	ret
	.seh_endproc
	.section	.text$_ZN9__gnu_cxx17__normal_iteratorIPNSt7__cxx1112basic_stringIcSt11char_traitsIcESaIcEEESt6vectorIS6_SaIS6_EEEC1ERKS7_,"x"
	.linkonce discard
	.align 2
	.globl	_ZN9__gnu_cxx17__normal_iteratorIPNSt7__cxx1112basic_stringIcSt11char_traitsIcESaIcEEESt6vectorIS6_SaIS6_EEEC1ERKS7_
	.def	_ZN9__gnu_cxx17__normal_iteratorIPNSt7__cxx1112basic_stringIcSt11char_traitsIcESaIcEEESt6vectorIS6_SaIS6_EEEC1ERKS7_;	.scl	2;	.type	32;	.endef
	.seh_proc	_ZN9__gnu_cxx17__normal_iteratorIPNSt7__cxx1112basic_stringIcSt11char_traitsIcESaIcEEESt6vectorIS6_SaIS6_EEEC1ERKS7_
_ZN9__gnu_cxx17__normal_iteratorIPNSt7__cxx1112basic_stringIcSt11char_traitsIcESaIcEEESt6vectorIS6_SaIS6_EEEC1ERKS7_:
.LFB2879:
	pushq	%rbp
	.seh_pushreg	%rbp
	movq	%rsp, %rbp
	.seh_setframe	%rbp, 0
	.seh_endprologue
	movq	%rcx, 16(%rbp)
	movq	%rdx, 24(%rbp)
	movq	24(%rbp), %rax
	movq	(%rax), %rdx
	movq	16(%rbp), %rax
	movq	%rdx, (%rax)
	nop
	popq	%rbp
	ret
	.seh_endproc
	.section	.text$_ZNK9__gnu_cxx17__normal_iteratorIPNSt7__cxx1112basic_stringIcSt11char_traitsIcESaIcEEESt6vectorIS6_SaIS6_EEE4baseEv,"x"
	.linkonce discard
	.align 2
	.globl	_ZNK9__gnu_cxx17__normal_iteratorIPNSt7__cxx1112basic_stringIcSt11char_traitsIcESaIcEEESt6vectorIS6_SaIS6_EEE4baseEv
	.def	_ZNK9__gnu_cxx17__normal_iteratorIPNSt7__cxx1112basic_stringIcSt11char_traitsIcESaIcEEESt6vectorIS6_SaIS6_EEE4baseEv;	.scl	2;	.type	32;	.endef
	.seh_proc	_ZNK9__gnu_cxx17__normal_iteratorIPNSt7__cxx1112basic_stringIcSt11char_traitsIcESaIcEEESt6vectorIS6_SaIS6_EEE4baseEv
_ZNK9__gnu_cxx17__normal_iteratorIPNSt7__cxx1112basic_stringIcSt11char_traitsIcESaIcEEESt6vectorIS6_SaIS6_EEE4baseEv:
.LFB2880:
	pushq	%rbp
	.seh_pushreg	%rbp
	movq	%rsp, %rbp
	.seh_setframe	%rbp, 0
	.seh_endprologue
	movq	%rcx, 16(%rbp)
	movq	16(%rbp), %rax
	popq	%rbp
	ret
	.seh_endproc
	.section	.text$_ZNSt12_Vector_baseINSt7__cxx1112basic_stringIcSt11char_traitsIcESaIcEEESaIS5_EE12_Vector_implC1ERKS6_,"x"
	.linkonce discard
	.align 2
	.globl	_ZNSt12_Vector_baseINSt7__cxx1112basic_stringIcSt11char_traitsIcESaIcEEESaIS5_EE12_Vector_implC1ERKS6_
	.def	_ZNSt12_Vector_baseINSt7__cxx1112basic_stringIcSt11char_traitsIcESaIcEEESaIS5_EE12_Vector_implC1ERKS6_;	.scl	2;	.type	32;	.endef
	.seh_proc	_ZNSt12_Vector_baseINSt7__cxx1112basic_stringIcSt11char_traitsIcESaIcEEESaIS5_EE12_Vector_implC1ERKS6_
_ZNSt12_Vector_baseINSt7__cxx1112basic_stringIcSt11char_traitsIcESaIcEEESaIS5_EE12_Vector_implC1ERKS6_:
.LFB2945:
	pushq	%rbp
	.seh_pushreg	%rbp
	movq	%rsp, %rbp
	.seh_setframe	%rbp, 0
	subq	$64, %rsp
	.seh_stackalloc	64
	.seh_endprologue
	movq	%rcx, 16(%rbp)
	movq	%rdx, 24(%rbp)
	movq	16(%rbp), %rax
	movq	%rax, -8(%rbp)
	movq	24(%rbp), %rax
	movq	%rax, -16(%rbp)
	movq	-8(%rbp), %rax
	movq	%rax, -24(%rbp)
	movq	-16(%rbp), %rax
	movq	%rax, -32(%rbp)
	nop
	nop
	movq	16(%rbp), %rax
	movq	%rax, %rcx
	call	_ZNSt12_Vector_baseINSt7__cxx1112basic_stringIcSt11char_traitsIcESaIcEEESaIS5_EE17_Vector_impl_dataC2Ev
	nop
	addq	$64, %rsp
	popq	%rbp
	ret
	.seh_endproc
	.section	.text$_ZNSt12_Vector_baseINSt7__cxx1112basic_stringIcSt11char_traitsIcESaIcEEESaIS5_EE13_M_deallocateEPS5_y,"x"
	.linkonce discard
	.align 2
	.globl	_ZNSt12_Vector_baseINSt7__cxx1112basic_stringIcSt11char_traitsIcESaIcEEESaIS5_EE13_M_deallocateEPS5_y
	.def	_ZNSt12_Vector_baseINSt7__cxx1112basic_stringIcSt11char_traitsIcESaIcEEESaIS5_EE13_M_deallocateEPS5_y;	.scl	2;	.type	32;	.endef
	.seh_proc	_ZNSt12_Vector_baseINSt7__cxx1112basic_stringIcSt11char_traitsIcESaIcEEESaIS5_EE13_M_deallocateEPS5_y
_ZNSt12_Vector_baseINSt7__cxx1112basic_stringIcSt11char_traitsIcESaIcEEESaIS5_EE13_M_deallocateEPS5_y:
.LFB2946:
	pushq	%rbp
	.seh_pushreg	%rbp
	movq	%rsp, %rbp
	.seh_setframe	%rbp, 0
	subq	$64, %rsp
	.seh_stackalloc	64
	.seh_endprologue
	movq	%rcx, 16(%rbp)
	movq	%rdx, 24(%rbp)
	movq	%r8, 32(%rbp)
	cmpq	$0, 24(%rbp)
	je	.L77
	movq	16(%rbp), %rax
	movq	%rax, -8(%rbp)
	movq	24(%rbp), %rax
	movq	%rax, -16(%rbp)
	movq	32(%rbp), %rax
	movq	%rax, -24(%rbp)
	movq	-24(%rbp), %rcx
	movq	-16(%rbp), %rdx
	movq	-8(%rbp), %rax
	movq	%rcx, %r8
	movq	%rax, %rcx
	call	_ZNSt15__new_allocatorINSt7__cxx1112basic_stringIcSt11char_traitsIcESaIcEEEE10deallocateEPS5_y
	nop
.L77:
	nop
	addq	$64, %rsp
	popq	%rbp
	ret
	.seh_endproc
	.section .rdata,"dr"
	.align 8
.LC1:
	.ascii "cannot create std::vector larger than max_size()\0"
	.section	.text$_ZNSt6vectorINSt7__cxx1112basic_stringIcSt11char_traitsIcESaIcEEESaIS5_EE17_S_check_init_lenEyRKS6_,"x"
	.linkonce discard
	.globl	_ZNSt6vectorINSt7__cxx1112basic_stringIcSt11char_traitsIcESaIcEEESaIS5_EE17_S_check_init_lenEyRKS6_
	.def	_ZNSt6vectorINSt7__cxx1112basic_stringIcSt11char_traitsIcESaIcEEESaIS5_EE17_S_check_init_lenEyRKS6_;	.scl	2;	.type	32;	.endef
	.seh_proc	_ZNSt6vectorINSt7__cxx1112basic_stringIcSt11char_traitsIcESaIcEEESaIS5_EE17_S_check_init_lenEyRKS6_
_ZNSt6vectorINSt7__cxx1112basic_stringIcSt11char_traitsIcESaIcEEESaIS5_EE17_S_check_init_lenEyRKS6_:
.LFB2948:
	pushq	%rbp
	.seh_pushreg	%rbp
	pushq	%rbx
	.seh_pushreg	%rbx
	subq	$72, %rsp
	.seh_stackalloc	72
	leaq	64(%rsp), %rbp
	.seh_setframe	%rbp, 64
	.seh_endprologue
	movq	%rcx, 32(%rbp)
	movq	%rdx, 40(%rbp)
	movq	40(%rbp), %rax
	movq	%rax, -8(%rbp)
	leaq	-25(%rbp), %rax
	movq	%rax, -16(%rbp)
	movq	-8(%rbp), %rax
	movq	%rax, -24(%rbp)
	nop
	nop
	leaq	-25(%rbp), %rax
	movq	%rax, %rcx
	call	_ZNSt6vectorINSt7__cxx1112basic_stringIcSt11char_traitsIcESaIcEEESaIS5_EE11_S_max_sizeERKS6_
	cmpq	32(%rbp), %rax
	setb	%bl
	leaq	-25(%rbp), %rax
	movq	%rax, %rcx
	call	_ZNSt15__new_allocatorINSt7__cxx1112basic_stringIcSt11char_traitsIcESaIcEEEED2Ev
	nop
	testb	%bl, %bl
	je	.L79
	leaq	.LC1(%rip), %rax
	movq	%rax, %rcx
	call	_ZSt20__throw_length_errorPKc
.L79:
	movq	32(%rbp), %rax
	addq	$72, %rsp
	popq	%rbx
	popq	%rbp
	ret
	.seh_endproc
	.section	.text$_ZNSt12_Vector_baseINSt7__cxx1112basic_stringIcSt11char_traitsIcESaIcEEESaIS5_EE11_M_allocateEy,"x"
	.linkonce discard
	.align 2
	.globl	_ZNSt12_Vector_baseINSt7__cxx1112basic_stringIcSt11char_traitsIcESaIcEEESaIS5_EE11_M_allocateEy
	.def	_ZNSt12_Vector_baseINSt7__cxx1112basic_stringIcSt11char_traitsIcESaIcEEESaIS5_EE11_M_allocateEy;	.scl	2;	.type	32;	.endef
	.seh_proc	_ZNSt12_Vector_baseINSt7__cxx1112basic_stringIcSt11char_traitsIcESaIcEEESaIS5_EE11_M_allocateEy
_ZNSt12_Vector_baseINSt7__cxx1112basic_stringIcSt11char_traitsIcESaIcEEESaIS5_EE11_M_allocateEy:
.LFB2949:
	pushq	%rbp
	.seh_pushreg	%rbp
	movq	%rsp, %rbp
	.seh_setframe	%rbp, 0
	subq	$48, %rsp
	.seh_stackalloc	48
	.seh_endprologue
	movq	%rcx, 16(%rbp)
	movq	%rdx, 24(%rbp)
	cmpq	$0, 24(%rbp)
	je	.L82
	movq	16(%rbp), %rax
	movq	%rax, -8(%rbp)
	movq	24(%rbp), %rax
	movq	%rax, -16(%rbp)
	movq	-16(%rbp), %rdx
	movq	-8(%rbp), %rax
	movl	$0, %r8d
	movq	%rax, %rcx
	call	_ZNSt15__new_allocatorINSt7__cxx1112basic_stringIcSt11char_traitsIcESaIcEEEE8allocateEyPKv
	nop
	jmp	.L84
.L82:
	movl	$0, %eax
.L84:
	addq	$48, %rsp
	popq	%rbp
	ret
	.seh_endproc
	.section	.text$_ZSt22__uninitialized_copy_aIPKPKcPNSt7__cxx1112basic_stringIcSt11char_traitsIcESaIcEEES9_ET0_T_SC_SB_RSaIT1_E,"x"
	.linkonce discard
	.globl	_ZSt22__uninitialized_copy_aIPKPKcPNSt7__cxx1112basic_stringIcSt11char_traitsIcESaIcEEES9_ET0_T_SC_SB_RSaIT1_E
	.def	_ZSt22__uninitialized_copy_aIPKPKcPNSt7__cxx1112basic_stringIcSt11char_traitsIcESaIcEEES9_ET0_T_SC_SB_RSaIT1_E;	.scl	2;	.type	32;	.endef
	.seh_proc	_ZSt22__uninitialized_copy_aIPKPKcPNSt7__cxx1112basic_stringIcSt11char_traitsIcESaIcEEES9_ET0_T_SC_SB_RSaIT1_E
_ZSt22__uninitialized_copy_aIPKPKcPNSt7__cxx1112basic_stringIcSt11char_traitsIcESaIcEEES9_ET0_T_SC_SB_RSaIT1_E:
.LFB2950:
	pushq	%rbp
	.seh_pushreg	%rbp
	movq	%rsp, %rbp
	.seh_setframe	%rbp, 0
	subq	$32, %rsp
	.seh_stackalloc	32
	.seh_endprologue
	movq	%rcx, 16(%rbp)
	movq	%rdx, 24(%rbp)
	movq	%r8, 32(%rbp)
	movq	%r9, 40(%rbp)
	movq	32(%rbp), %rcx
	movq	24(%rbp), %rdx
	movq	16(%rbp), %rax
	movq	%rcx, %r8
	movq	%rax, %rcx
	call	_ZSt18uninitialized_copyIPKPKcPNSt7__cxx1112basic_stringIcSt11char_traitsIcESaIcEEEET0_T_SC_SB_
	addq	$32, %rsp
	popq	%rbp
	ret
	.seh_endproc
	.section	.text$_ZSt8_DestroyIPNSt7__cxx1112basic_stringIcSt11char_traitsIcESaIcEEEEvT_S7_,"x"
	.linkonce discard
	.globl	_ZSt8_DestroyIPNSt7__cxx1112basic_stringIcSt11char_traitsIcESaIcEEEEvT_S7_
	.def	_ZSt8_DestroyIPNSt7__cxx1112basic_stringIcSt11char_traitsIcESaIcEEEEvT_S7_;	.scl	2;	.type	32;	.endef
	.seh_proc	_ZSt8_DestroyIPNSt7__cxx1112basic_stringIcSt11char_traitsIcESaIcEEEEvT_S7_
_ZSt8_DestroyIPNSt7__cxx1112basic_stringIcSt11char_traitsIcESaIcEEEEvT_S7_:
.LFB2951:
	pushq	%rbp
	.seh_pushreg	%rbp
	movq	%rsp, %rbp
	.seh_setframe	%rbp, 0
	subq	$32, %rsp
	.seh_stackalloc	32
	.seh_endprologue
	movq	%rcx, 16(%rbp)
	movq	%rdx, 24(%rbp)
	movq	24(%rbp), %rdx
	movq	16(%rbp), %rax
	movq	%rax, %rcx
	call	_ZNSt12_Destroy_auxILb0EE9__destroyIPNSt7__cxx1112basic_stringIcSt11char_traitsIcESaIcEEEEEvT_S9_
	nop
	addq	$32, %rsp
	popq	%rbp
	ret
	.seh_endproc
	.section	.text$_ZNSt12_Vector_baseINSt7__cxx1112basic_stringIcSt11char_traitsIcESaIcEEESaIS5_EE17_Vector_impl_dataC2Ev,"x"
	.linkonce discard
	.align 2
	.globl	_ZNSt12_Vector_baseINSt7__cxx1112basic_stringIcSt11char_traitsIcESaIcEEESaIS5_EE17_Vector_impl_dataC2Ev
	.def	_ZNSt12_Vector_baseINSt7__cxx1112basic_stringIcSt11char_traitsIcESaIcEEESaIS5_EE17_Vector_impl_dataC2Ev;	.scl	2;	.type	32;	.endef
	.seh_proc	_ZNSt12_Vector_baseINSt7__cxx1112basic_stringIcSt11char_traitsIcESaIcEEESaIS5_EE17_Vector_impl_dataC2Ev
_ZNSt12_Vector_baseINSt7__cxx1112basic_stringIcSt11char_traitsIcESaIcEEESaIS5_EE17_Vector_impl_dataC2Ev:
.LFB3008:
	pushq	%rbp
	.seh_pushreg	%rbp
	movq	%rsp, %rbp
	.seh_setframe	%rbp, 0
	.seh_endprologue
	movq	%rcx, 16(%rbp)
	movq	16(%rbp), %rax
	movq	$0, (%rax)
	movq	16(%rbp), %rax
	movq	$0, 8(%rax)
	movq	16(%rbp), %rax
	movq	$0, 16(%rax)
	nop
	popq	%rbp
	ret
	.seh_endproc
	.section	.text$_ZNSt6vectorINSt7__cxx1112basic_stringIcSt11char_traitsIcESaIcEEESaIS5_EE11_S_max_sizeERKS6_,"x"
	.linkonce discard
	.globl	_ZNSt6vectorINSt7__cxx1112basic_stringIcSt11char_traitsIcESaIcEEESaIS5_EE11_S_max_sizeERKS6_
	.def	_ZNSt6vectorINSt7__cxx1112basic_stringIcSt11char_traitsIcESaIcEEESaIS5_EE11_S_max_sizeERKS6_;	.scl	2;	.type	32;	.endef
	.seh_proc	_ZNSt6vectorINSt7__cxx1112basic_stringIcSt11char_traitsIcESaIcEEESaIS5_EE11_S_max_sizeERKS6_
_ZNSt6vectorINSt7__cxx1112basic_stringIcSt11char_traitsIcESaIcEEESaIS5_EE11_S_max_sizeERKS6_:
.LFB3011:
	pushq	%rbp
	.seh_pushreg	%rbp
	movq	%rsp, %rbp
	.seh_setframe	%rbp, 0
	subq	$80, %rsp
	.seh_stackalloc	80
	.seh_endprologue
	movq	%rcx, 16(%rbp)
	movabsq	$288230376151711743, %rax
	movq	%rax, -32(%rbp)
	movq	16(%rbp), %rax
	movq	%rax, -8(%rbp)
	movq	-8(%rbp), %rax
	movq	%rax, -16(%rbp)
	movq	-16(%rbp), %rax
	movq	%rax, -24(%rbp)
	movabsq	$288230376151711743, %rax
	nop
	nop
	movq	%rax, -40(%rbp)
	leaq	-40(%rbp), %rdx
	leaq	-32(%rbp), %rax
	movq	%rax, %rcx
	call	_ZSt3minIyERKT_S2_S2_
	movq	(%rax), %rax
	addq	$80, %rsp
	popq	%rbp
	ret
	.seh_endproc
	.section	.text$_ZSt18uninitialized_copyIPKPKcPNSt7__cxx1112basic_stringIcSt11char_traitsIcESaIcEEEET0_T_SC_SB_,"x"
	.linkonce discard
	.globl	_ZSt18uninitialized_copyIPKPKcPNSt7__cxx1112basic_stringIcSt11char_traitsIcESaIcEEEET0_T_SC_SB_
	.def	_ZSt18uninitialized_copyIPKPKcPNSt7__cxx1112basic_stringIcSt11char_traitsIcESaIcEEEET0_T_SC_SB_;	.scl	2;	.type	32;	.endef
	.seh_proc	_ZSt18uninitialized_copyIPKPKcPNSt7__cxx1112basic_stringIcSt11char_traitsIcESaIcEEEET0_T_SC_SB_
_ZSt18uninitialized_copyIPKPKcPNSt7__cxx1112basic_stringIcSt11char_traitsIcESaIcEEEET0_T_SC_SB_:
.LFB3013:
	pushq	%rbp
	.seh_pushreg	%rbp
	movq	%rsp, %rbp
	.seh_setframe	%rbp, 0
	subq	$48, %rsp
	.seh_stackalloc	48
	.seh_endprologue
	movq	%rcx, 16(%rbp)
	movq	%rdx, 24(%rbp)
	movq	%r8, 32(%rbp)
	movb	$1, -1(%rbp)
	movb	$0, -2(%rbp)
	movq	32(%rbp), %rcx
	movq	24(%rbp), %rdx
	movq	16(%rbp), %rax
	movq	%rcx, %r8
	movq	%rax, %rcx
	call	_ZNSt20__uninitialized_copyILb0EE13__uninit_copyIPKPKcPNSt7__cxx1112basic_stringIcSt11char_traitsIcESaIcEEEEET0_T_SE_SD_
	addq	$48, %rsp
	popq	%rbp
	ret
	.seh_endproc
	.section	.text$_ZNSt12_Destroy_auxILb0EE9__destroyIPNSt7__cxx1112basic_stringIcSt11char_traitsIcESaIcEEEEEvT_S9_,"x"
	.linkonce discard
	.globl	_ZNSt12_Destroy_auxILb0EE9__destroyIPNSt7__cxx1112basic_stringIcSt11char_traitsIcESaIcEEEEEvT_S9_
	.def	_ZNSt12_Destroy_auxILb0EE9__destroyIPNSt7__cxx1112basic_stringIcSt11char_traitsIcESaIcEEEEEvT_S9_;	.scl	2;	.type	32;	.endef
	.seh_proc	_ZNSt12_Destroy_auxILb0EE9__destroyIPNSt7__cxx1112basic_stringIcSt11char_traitsIcESaIcEEEEEvT_S9_
_ZNSt12_Destroy_auxILb0EE9__destroyIPNSt7__cxx1112basic_stringIcSt11char_traitsIcESaIcEEEEEvT_S9_:
.LFB3015:
	pushq	%rbp
	.seh_pushreg	%rbp
	movq	%rsp, %rbp
	.seh_setframe	%rbp, 0
	subq	$32, %rsp
	.seh_stackalloc	32
	.seh_endprologue
	movq	%rcx, 16(%rbp)
	movq	%rdx, 24(%rbp)
	jmp	.L98
.L99:
	movq	16(%rbp), %rax
	movq	%rax, %rcx
	call	_ZSt11__addressofINSt7__cxx1112basic_stringIcSt11char_traitsIcESaIcEEEEPT_RS6_
	movq	%rax, %rcx
	call	_ZSt8_DestroyINSt7__cxx1112basic_stringIcSt11char_traitsIcESaIcEEEEvPT_
	addq	$32, 16(%rbp)
.L98:
	movq	16(%rbp), %rax
	cmpq	24(%rbp), %rax
	jne	.L99
	nop
	nop
	addq	$32, %rsp
	popq	%rbp
	ret
	.seh_endproc
	.section	.text$_ZNSt15__new_allocatorINSt7__cxx1112basic_stringIcSt11char_traitsIcESaIcEEEE10deallocateEPS5_y,"x"
	.linkonce discard
	.align 2
	.globl	_ZNSt15__new_allocatorINSt7__cxx1112basic_stringIcSt11char_traitsIcESaIcEEEE10deallocateEPS5_y
	.def	_ZNSt15__new_allocatorINSt7__cxx1112basic_stringIcSt11char_traitsIcESaIcEEEE10deallocateEPS5_y;	.scl	2;	.type	32;	.endef
	.seh_proc	_ZNSt15__new_allocatorINSt7__cxx1112basic_stringIcSt11char_traitsIcESaIcEEEE10deallocateEPS5_y
_ZNSt15__new_allocatorINSt7__cxx1112basic_stringIcSt11char_traitsIcESaIcEEEE10deallocateEPS5_y:
.LFB3038:
	pushq	%rbp
	.seh_pushreg	%rbp
	movq	%rsp, %rbp
	.seh_setframe	%rbp, 0
	subq	$32, %rsp
	.seh_stackalloc	32
	.seh_endprologue
	movq	%rcx, 16(%rbp)
	movq	%rdx, 24(%rbp)
	movq	%r8, 32(%rbp)
	movq	32(%rbp), %rax
	salq	$5, %rax
	movq	%rax, %rdx
	movq	24(%rbp), %rax
	movq	%rax, %rcx
	call	_ZdlPvy
	nop
	addq	$32, %rsp
	popq	%rbp
	ret
	.seh_endproc
	.section	.text$_ZSt3minIyERKT_S2_S2_,"x"
	.linkonce discard
	.globl	_ZSt3minIyERKT_S2_S2_
	.def	_ZSt3minIyERKT_S2_S2_;	.scl	2;	.type	32;	.endef
	.seh_proc	_ZSt3minIyERKT_S2_S2_
_ZSt3minIyERKT_S2_S2_:
.LFB3040:
	pushq	%rbp
	.seh_pushreg	%rbp
	movq	%rsp, %rbp
	.seh_setframe	%rbp, 0
	.seh_endprologue
	movq	%rcx, 16(%rbp)
	movq	%rdx, 24(%rbp)
	movq	24(%rbp), %rax
	movq	(%rax), %rdx
	movq	16(%rbp), %rax
	movq	(%rax), %rax
	cmpq	%rax, %rdx
	jnb	.L103
	movq	24(%rbp), %rax
	jmp	.L104
.L103:
	movq	16(%rbp), %rax
.L104:
	popq	%rbp
	ret
	.seh_endproc
	.section	.text$_ZNSt15__new_allocatorINSt7__cxx1112basic_stringIcSt11char_traitsIcESaIcEEEE8allocateEyPKv,"x"
	.linkonce discard
	.align 2
	.globl	_ZNSt15__new_allocatorINSt7__cxx1112basic_stringIcSt11char_traitsIcESaIcEEEE8allocateEyPKv
	.def	_ZNSt15__new_allocatorINSt7__cxx1112basic_stringIcSt11char_traitsIcESaIcEEEE8allocateEyPKv;	.scl	2;	.type	32;	.endef
	.seh_proc	_ZNSt15__new_allocatorINSt7__cxx1112basic_stringIcSt11char_traitsIcESaIcEEEE8allocateEyPKv
_ZNSt15__new_allocatorINSt7__cxx1112basic_stringIcSt11char_traitsIcESaIcEEEE8allocateEyPKv:
.LFB3041:
	pushq	%rbp
	.seh_pushreg	%rbp
	movq	%rsp, %rbp
	.seh_setframe	%rbp, 0
	subq	$48, %rsp
	.seh_stackalloc	48
	.seh_endprologue
	movq	%rcx, 16(%rbp)
	movq	%rdx, 24(%rbp)
	movq	%r8, 32(%rbp)
	movq	16(%rbp), %rax
	movq	%rax, -8(%rbp)
	movabsq	$288230376151711743, %rax
	cmpq	24(%rbp), %rax
	setb	%al
	movzbl	%al, %eax
	testl	%eax, %eax
	setne	%al
	testb	%al, %al
	je	.L107
	movabsq	$576460752303423487, %rax
	cmpq	24(%rbp), %rax
	jnb	.L108
	call	_ZSt28__throw_bad_array_new_lengthv
.L108:
	call	_ZSt17__throw_bad_allocv
.L107:
	movq	24(%rbp), %rax
	salq	$5, %rax
	movq	%rax, %rcx
	call	_Znwy
	nop
	addq	$48, %rsp
	popq	%rbp
	ret
	.seh_endproc
	.section	.text$_ZNSt20__uninitialized_copyILb0EE13__uninit_copyIPKPKcPNSt7__cxx1112basic_stringIcSt11char_traitsIcESaIcEEEEET0_T_SE_SD_,"x"
	.linkonce discard
	.globl	_ZNSt20__uninitialized_copyILb0EE13__uninit_copyIPKPKcPNSt7__cxx1112basic_stringIcSt11char_traitsIcESaIcEEEEET0_T_SE_SD_
	.def	_ZNSt20__uninitialized_copyILb0EE13__uninit_copyIPKPKcPNSt7__cxx1112basic_stringIcSt11char_traitsIcESaIcEEEEET0_T_SE_SD_;	.scl	2;	.type	32;	.endef
	.seh_proc	_ZNSt20__uninitialized_copyILb0EE13__uninit_copyIPKPKcPNSt7__cxx1112basic_stringIcSt11char_traitsIcESaIcEEEEET0_T_SE_SD_
_ZNSt20__uninitialized_copyILb0EE13__uninit_copyIPKPKcPNSt7__cxx1112basic_stringIcSt11char_traitsIcESaIcEEEEET0_T_SE_SD_:
.LFB3043:
	pushq	%rbp
	.seh_pushreg	%rbp
	movq	%rsp, %rbp
	.seh_setframe	%rbp, 0
	subq	$32, %rsp
	.seh_stackalloc	32
	.seh_endprologue
	movq	%rcx, 16(%rbp)
	movq	%rdx, 24(%rbp)
	movq	%r8, 32(%rbp)
	movq	32(%rbp), %rcx
	movq	24(%rbp), %rdx
	movq	16(%rbp), %rax
	movq	%rcx, %r8
	movq	%rax, %rcx
	call	_ZSt16__do_uninit_copyIPKPKcPNSt7__cxx1112basic_stringIcSt11char_traitsIcESaIcEEEET0_T_SC_SB_
	addq	$32, %rsp
	popq	%rbp
	ret
	.seh_endproc
	.section	.text$_ZSt11__addressofINSt7__cxx1112basic_stringIcSt11char_traitsIcESaIcEEEEPT_RS6_,"x"
	.linkonce discard
	.globl	_ZSt11__addressofINSt7__cxx1112basic_stringIcSt11char_traitsIcESaIcEEEEPT_RS6_
	.def	_ZSt11__addressofINSt7__cxx1112basic_stringIcSt11char_traitsIcESaIcEEEEPT_RS6_;	.scl	2;	.type	32;	.endef
	.seh_proc	_ZSt11__addressofINSt7__cxx1112basic_stringIcSt11char_traitsIcESaIcEEEEPT_RS6_
_ZSt11__addressofINSt7__cxx1112basic_stringIcSt11char_traitsIcESaIcEEEEPT_RS6_:
.LFB3044:
	pushq	%rbp
	.seh_pushreg	%rbp
	movq	%rsp, %rbp
	.seh_setframe	%rbp, 0
	.seh_endprologue
	movq	%rcx, 16(%rbp)
	movq	16(%rbp), %rax
	popq	%rbp
	ret
	.seh_endproc
	.section	.text$_ZSt8_DestroyINSt7__cxx1112basic_stringIcSt11char_traitsIcESaIcEEEEvPT_,"x"
	.linkonce discard
	.globl	_ZSt8_DestroyINSt7__cxx1112basic_stringIcSt11char_traitsIcESaIcEEEEvPT_
	.def	_ZSt8_DestroyINSt7__cxx1112basic_stringIcSt11char_traitsIcESaIcEEEEvPT_;	.scl	2;	.type	32;	.endef
	.seh_proc	_ZSt8_DestroyINSt7__cxx1112basic_stringIcSt11char_traitsIcESaIcEEEEvPT_
_ZSt8_DestroyINSt7__cxx1112basic_stringIcSt11char_traitsIcESaIcEEEEvPT_:
.LFB3045:
	pushq	%rbp
	.seh_pushreg	%rbp
	movq	%rsp, %rbp
	.seh_setframe	%rbp, 0
	subq	$32, %rsp
	.seh_stackalloc	32
	.seh_endprologue
	movq	%rcx, 16(%rbp)
	movq	16(%rbp), %rax
	movq	%rax, %rcx
	call	_ZNSt7__cxx1112basic_stringIcSt11char_traitsIcESaIcEED1Ev
	nop
	addq	$32, %rsp
	popq	%rbp
	ret
	.seh_endproc
	.section	.text$_ZSt16__do_uninit_copyIPKPKcPNSt7__cxx1112basic_stringIcSt11char_traitsIcESaIcEEEET0_T_SC_SB_,"x"
	.linkonce discard
	.globl	_ZSt16__do_uninit_copyIPKPKcPNSt7__cxx1112basic_stringIcSt11char_traitsIcESaIcEEEET0_T_SC_SB_
	.def	_ZSt16__do_uninit_copyIPKPKcPNSt7__cxx1112basic_stringIcSt11char_traitsIcESaIcEEEET0_T_SC_SB_;	.scl	2;	.type	32;	.endef
	.seh_proc	_ZSt16__do_uninit_copyIPKPKcPNSt7__cxx1112basic_stringIcSt11char_traitsIcESaIcEEEET0_T_SC_SB_
_ZSt16__do_uninit_copyIPKPKcPNSt7__cxx1112basic_stringIcSt11char_traitsIcESaIcEEEET0_T_SC_SB_:
.LFB3057:
	pushq	%rbp
	.seh_pushreg	%rbp
	pushq	%rbx
	.seh_pushreg	%rbx
	subq	$56, %rsp
	.seh_stackalloc	56
	leaq	48(%rsp), %rbp
	.seh_setframe	%rbp, 48
	.seh_endprologue
	movq	%rcx, 32(%rbp)
	movq	%rdx, 40(%rbp)
	movq	%r8, 48(%rbp)
	movq	48(%rbp), %rax
	movq	%rax, -8(%rbp)
	jmp	.L116
.L117:
	movq	-8(%rbp), %rax
	movq	%rax, %rcx
	call	_ZSt11__addressofINSt7__cxx1112basic_stringIcSt11char_traitsIcESaIcEEEEPT_RS6_
	movq	%rax, %rcx
	movq	32(%rbp), %rax
	movq	%rax, %rdx
.LEHB12:
	call	_ZSt10_ConstructINSt7__cxx1112basic_stringIcSt11char_traitsIcESaIcEEEJRKPKcEEvPT_DpOT0_
.LEHE12:
	addq	$8, 32(%rbp)
	addq	$32, -8(%rbp)
.L116:
	movq	32(%rbp), %rax
	cmpq	40(%rbp), %rax
	jne	.L117
	movq	-8(%rbp), %rax
	jmp	.L123
.L121:
	movq	%rax, %rcx
	call	__cxa_begin_catch
	movq	-8(%rbp), %rdx
	movq	48(%rbp), %rax
	movq	%rax, %rcx
.LEHB13:
	call	_ZSt8_DestroyIPNSt7__cxx1112basic_stringIcSt11char_traitsIcESaIcEEEEvT_S7_
	call	__cxa_rethrow
.LEHE13:
.L122:
	movq	%rax, %rbx
	call	__cxa_end_catch
	movq	%rbx, %rax
	movq	%rax, %rcx
.LEHB14:
	call	_Unwind_Resume
.LEHE14:
.L123:
	addq	$56, %rsp
	popq	%rbx
	popq	%rbp
	ret
	.seh_handler	__gxx_personality_seh0, @unwind, @except
	.seh_handlerdata
	.align 4
.LLSDA3057:
	.byte	0xff
	.byte	0x9b
	.uleb128 .LLSDATT3057-.LLSDATTD3057
.LLSDATTD3057:
	.byte	0x1
	.uleb128 .LLSDACSE3057-.LLSDACSB3057
.LLSDACSB3057:
	.uleb128 .LEHB12-.LFB3057
	.uleb128 .LEHE12-.LEHB12
	.uleb128 .L121-.LFB3057
	.uleb128 0x1
	.uleb128 .LEHB13-.LFB3057
	.uleb128 .LEHE13-.LEHB13
	.uleb128 .L122-.LFB3057
	.uleb128 0
	.uleb128 .LEHB14-.LFB3057
	.uleb128 .LEHE14-.LEHB14
	.uleb128 0
	.uleb128 0
.LLSDACSE3057:
	.byte	0x1
	.byte	0
	.align 4
	.long	0

.LLSDATT3057:
	.section	.text$_ZSt16__do_uninit_copyIPKPKcPNSt7__cxx1112basic_stringIcSt11char_traitsIcESaIcEEEET0_T_SC_SB_,"x"
	.linkonce discard
	.seh_endproc
	.section	.text$_ZSt10_ConstructINSt7__cxx1112basic_stringIcSt11char_traitsIcESaIcEEEJRKPKcEEvPT_DpOT0_,"x"
	.linkonce discard
	.globl	_ZSt10_ConstructINSt7__cxx1112basic_stringIcSt11char_traitsIcESaIcEEEJRKPKcEEvPT_DpOT0_
	.def	_ZSt10_ConstructINSt7__cxx1112basic_stringIcSt11char_traitsIcESaIcEEEJRKPKcEEvPT_DpOT0_;	.scl	2;	.type	32;	.endef
	.seh_proc	_ZSt10_ConstructINSt7__cxx1112basic_stringIcSt11char_traitsIcESaIcEEEJRKPKcEEvPT_DpOT0_
_ZSt10_ConstructINSt7__cxx1112basic_stringIcSt11char_traitsIcESaIcEEEJRKPKcEEvPT_DpOT0_:
.LFB3061:
	pushq	%rbp
	.seh_pushreg	%rbp
	pushq	%r12
	.seh_pushreg	%r12
	pushq	%rdi
	.seh_pushreg	%rdi
	pushq	%rsi
	.seh_pushreg	%rsi
	pushq	%rbx
	.seh_pushreg	%rbx
	subq	$48, %rsp
	.seh_stackalloc	48
	leaq	48(%rsp), %rbp
	.seh_setframe	%rbp, 48
	.seh_endprologue
	movq	%rcx, 48(%rbp)
	movq	%rdx, 56(%rbp)
	movq	48(%rbp), %rbx
	movq	%rbx, %rdx
	movl	$32, %ecx
	call	_ZnwyPv
	movq	%rax, %rsi
	movl	$1, %r12d
	leaq	-9(%rbp), %rax
	movq	%rax, -8(%rbp)
	nop
	nop
	movq	56(%rbp), %rax
	movq	%rax, %rcx
	call	_ZSt7forwardIRKPKcEOT_RNSt16remove_referenceIS4_E4typeE
	movq	(%rax), %rax
	leaq	-9(%rbp), %rdx
	movq	%rdx, %r8
	movq	%rax, %rdx
	movq	%rsi, %rcx
.LEHB15:
	call	_ZNSt7__cxx1112basic_stringIcSt11char_traitsIcESaIcEEC1IS3_EEPKcRKS3_
.LEHE15:
	leaq	-9(%rbp), %rax
	movq	%rax, %rcx
	call	_ZNSt15__new_allocatorIcED2Ev
	nop
	jmp	.L128
.L127:
	movq	%rax, %rdi
	leaq	-9(%rbp), %rax
	movq	%rax, %rcx
	call	_ZNSt15__new_allocatorIcED2Ev
	nop
	testb	%r12b, %r12b
	je	.L126
	movq	%rbx, %rdx
	movq	%rsi, %rcx
	call	_ZdlPvS_
.L126:
	movq	%rdi, %rax
	movq	%rax, %rcx
.LEHB16:
	call	_Unwind_Resume
	nop
.LEHE16:
.L128:
	addq	$48, %rsp
	popq	%rbx
	popq	%rsi
	popq	%rdi
	popq	%r12
	popq	%rbp
	ret
	.seh_handler	__gxx_personality_seh0, @unwind, @except
	.seh_handlerdata
.LLSDA3061:
	.byte	0xff
	.byte	0xff
	.byte	0x1
	.uleb128 .LLSDACSE3061-.LLSDACSB3061
.LLSDACSB3061:
	.uleb128 .LEHB15-.LFB3061
	.uleb128 .LEHE15-.LEHB15
	.uleb128 .L127-.LFB3061
	.uleb128 0
	.uleb128 .LEHB16-.LFB3061
	.uleb128 .LEHE16-.LEHB16
	.uleb128 0
	.uleb128 0
.LLSDACSE3061:
	.section	.text$_ZSt10_ConstructINSt7__cxx1112basic_stringIcSt11char_traitsIcESaIcEEEJRKPKcEEvPT_DpOT0_,"x"
	.linkonce discard
	.seh_endproc
	.section	.text$_ZSt7forwardIRKPKcEOT_RNSt16remove_referenceIS4_E4typeE,"x"
	.linkonce discard
	.globl	_ZSt7forwardIRKPKcEOT_RNSt16remove_referenceIS4_E4typeE
	.def	_ZSt7forwardIRKPKcEOT_RNSt16remove_referenceIS4_E4typeE;	.scl	2;	.type	32;	.endef
	.seh_proc	_ZSt7forwardIRKPKcEOT_RNSt16remove_referenceIS4_E4typeE
_ZSt7forwardIRKPKcEOT_RNSt16remove_referenceIS4_E4typeE:
.LFB3062:
	pushq	%rbp
	.seh_pushreg	%rbp
	movq	%rsp, %rbp
	.seh_setframe	%rbp, 0
	.seh_endprologue
	movq	%rcx, 16(%rbp)
	movq	16(%rbp), %rax
	popq	%rbp
	ret
	.seh_endproc
	.section .rdata,"dr"
_ZNSt8__detail30__integer_to_chars_is_unsignedIjEE:
	.byte	1
_ZNSt8__detail30__integer_to_chars_is_unsignedImEE:
	.byte	1
_ZNSt8__detail30__integer_to_chars_is_unsignedIyEE:
	.byte	1
.LC2:
	.ascii "I\0"
.LC3:
	.ascii " am\0"
.LC4:
	.ascii " Eslam!\0"
	.align 16
C.0.0:
	.quad	.LC2
	.quad	.LC3
	.quad	.LC4
	.def	__gxx_personality_seh0;	.scl	2;	.type	32;	.endef
	.def	__main;	.scl	2;	.type	32;	.endef
	.ident	"GCC: (Rev2, Built by MSYS2 project) 14.2.0"
	.def	strlen;	.scl	2;	.type	32;	.endef
	.def	_ZNSt7__cxx1112basic_stringIcSt11char_traitsIcESaIcEEC1ERKS4_;	.scl	2;	.type	32;	.endef
	.def	_ZStlsIcSt11char_traitsIcESaIcEERSt13basic_ostreamIT_T0_ES7_RKNSt7__cxx1112basic_stringIS4_S5_T1_EE;	.scl	2;	.type	32;	.endef
	.def	_ZNSt7__cxx1112basic_stringIcSt11char_traitsIcESaIcEED1Ev;	.scl	2;	.type	32;	.endef
	.def	_ZNSolsEPFRSoS_E;	.scl	2;	.type	32;	.endef
	.def	_Unwind_Resume;	.scl	2;	.type	32;	.endef
	.def	_ZNSt7__cxx1112basic_stringIcSt11char_traitsIcESaIcEE13_M_local_dataEv;	.scl	2;	.type	32;	.endef
	.def	_ZNSt7__cxx1112basic_stringIcSt11char_traitsIcESaIcEE12_Alloc_hiderC1EPcRKS3_;	.scl	2;	.type	32;	.endef
	.def	_ZSt19__throw_logic_errorPKc;	.scl	2;	.type	32;	.endef
	.def	_ZNSt7__cxx1112basic_stringIcSt11char_traitsIcESaIcEE10_M_disposeEv;	.scl	2;	.type	32;	.endef
	.def	_ZNSt7__cxx1112basic_stringIcSt11char_traitsIcESaIcEE9_M_createERyy;	.scl	2;	.type	32;	.endef
	.def	_ZNSt7__cxx1112basic_stringIcSt11char_traitsIcESaIcEE7_M_dataEPc;	.scl	2;	.type	32;	.endef
	.def	_ZNSt7__cxx1112basic_stringIcSt11char_traitsIcESaIcEE11_M_capacityEy;	.scl	2;	.type	32;	.endef
	.def	_ZNKSt7__cxx1112basic_stringIcSt11char_traitsIcESaIcEE7_M_dataEv;	.scl	2;	.type	32;	.endef
	.def	_ZNSt7__cxx1112basic_stringIcSt11char_traitsIcESaIcEE13_S_copy_charsEPcPKcS7_;	.scl	2;	.type	32;	.endef
	.def	_ZNSt7__cxx1112basic_stringIcSt11char_traitsIcESaIcEE13_M_set_lengthEy;	.scl	2;	.type	32;	.endef
	.def	_ZSt20__throw_length_errorPKc;	.scl	2;	.type	32;	.endef
	.def	_ZdlPvy;	.scl	2;	.type	32;	.endef
	.def	_ZSt28__throw_bad_array_new_lengthv;	.scl	2;	.type	32;	.endef
	.def	_ZSt17__throw_bad_allocv;	.scl	2;	.type	32;	.endef
	.def	_Znwy;	.scl	2;	.type	32;	.endef
	.def	__cxa_begin_catch;	.scl	2;	.type	32;	.endef
	.def	__cxa_rethrow;	.scl	2;	.type	32;	.endef
	.def	__cxa_end_catch;	.scl	2;	.type	32;	.endef
	.section	.rdata$.refptr._ZSt4endlIcSt11char_traitsIcEERSt13basic_ostreamIT_T0_ES6_, "dr"
	.globl	.refptr._ZSt4endlIcSt11char_traitsIcEERSt13basic_ostreamIT_T0_ES6_
	.linkonce	discard
.refptr._ZSt4endlIcSt11char_traitsIcEERSt13basic_ostreamIT_T0_ES6_:
	.quad	_ZSt4endlIcSt11char_traitsIcEERSt13basic_ostreamIT_T0_ES6_
	.section	.rdata$.refptr._ZSt4cout, "dr"
	.globl	.refptr._ZSt4cout
	.linkonce	discard
.refptr._ZSt4cout:
	.quad	_ZSt4cout
